target datalayout = "e-m:e-p270:32:32-p271:32:32-p272:64:64-i64:64-i128:128-f80:128-n8:16:32:64-S128"
target triple = "x86_64-pc-linux-gnu"

%struct.Hacl_Hash_SHA3_hash_buf_s = type { i8, ptr }
%struct.Hacl_Hash_SHA3_state_t_s = type { %struct.Hacl_Hash_SHA3_hash_buf_s, ptr, i64 }

; Function Attrs: nounwind uwtable
define hidden void @python_hashlib_Hacl_Hash_SHA3_reset(ptr noundef %0) #0 {
  %2 = alloca ptr, align 8
  %3 = alloca %struct.Hacl_Hash_SHA3_state_t_s, align 8
  %4 = alloca ptr, align 8
  %5 = alloca %struct.Hacl_Hash_SHA3_hash_buf_s, align 8
  %6 = alloca i8, align 1
  %7 = alloca ptr, align 8
  %8 = alloca %struct.Hacl_Hash_SHA3_state_t_s, align 8
  store ptr %0, ptr %2, align 8, !tbaa !28
  call void @llvm.lifetime.start.p0(i64 32, ptr %3) #10
  %9 = load ptr, ptr %2, align 8, !tbaa !28
  call void @llvm.memcpy.p0.p0.i64(ptr align 8 %3, ptr align 8 %9, i64 32, i1 false), !tbaa.struct !37
  call void @llvm.lifetime.start.p0(i64 8, ptr %4) #10
  %10 = getelementptr inbounds nuw %struct.Hacl_Hash_SHA3_state_t_s, ptr %3, i32 0, i32 1
  %11 = load ptr, ptr %10, align 8, !tbaa !34
  store ptr %11, ptr %4, align 8, !tbaa !9
  call void @llvm.lifetime.start.p0(i64 16, ptr %5) #10
  %12 = getelementptr inbounds nuw %struct.Hacl_Hash_SHA3_state_t_s, ptr %3, i32 0, i32 0
  call void @llvm.memcpy.p0.p0.i64(ptr align 8 %5, ptr align 8 %12, i64 16, i1 false), !tbaa.struct !30
  call void @llvm.lifetime.start.p0(i64 1, ptr %6) #10
  %13 = getelementptr inbounds nuw %struct.Hacl_Hash_SHA3_hash_buf_s, ptr %5, i32 0, i32 0
  %14 = load i8, ptr %13, align 8, !tbaa !31
  store i8 %14, ptr %6, align 1, !tbaa !3
  call void @llvm.lifetime.start.p0(i64 8, ptr %7) #10
  %15 = getelementptr inbounds nuw %struct.Hacl_Hash_SHA3_hash_buf_s, ptr %5, i32 0, i32 1
  %16 = load ptr, ptr %15, align 8, !tbaa !33
  store ptr %16, ptr %7, align 8, !tbaa !6
  %17 = load ptr, ptr %7, align 8, !tbaa !6
  call void @llvm.memset.p0.i64(ptr align 8 %17, i8 0, i64 200, i1 false)
  call void @llvm.lifetime.start.p0(i64 32, ptr %8) #10
  %18 = getelementptr inbounds nuw %struct.Hacl_Hash_SHA3_state_t_s, ptr %8, i32 0, i32 0
  call void @llvm.memcpy.p0.p0.i64(ptr align 8 %18, ptr align 8 %5, i64 16, i1 false), !tbaa.struct !30
  %19 = getelementptr inbounds nuw %struct.Hacl_Hash_SHA3_state_t_s, ptr %8, i32 0, i32 1
  %20 = load ptr, ptr %4, align 8, !tbaa !9
  store ptr %20, ptr %19, align 8, !tbaa !34
  %21 = getelementptr inbounds nuw %struct.Hacl_Hash_SHA3_state_t_s, ptr %8, i32 0, i32 2
  store i64 0, ptr %21, align 8, !tbaa !36
  %22 = load ptr, ptr %2, align 8, !tbaa !28
  %23 = getelementptr %struct.Hacl_Hash_SHA3_state_t_s, ptr %22, i64 0
  call void @llvm.memcpy.p0.p0.i64(ptr align 8 %23, ptr align 8 %8, i64 32, i1 false), !tbaa.struct !37
  call void @llvm.lifetime.end.p0(i64 32, ptr %8) #10
  call void @llvm.lifetime.end.p0(i64 8, ptr %7) #10
  call void @llvm.lifetime.end.p0(i64 1, ptr %6) #10
  call void @llvm.lifetime.end.p0(i64 16, ptr %5) #10
  call void @llvm.lifetime.end.p0(i64 8, ptr %4) #10
  call void @llvm.lifetime.end.p0(i64 32, ptr %3) #10
  ret void
}