; Function Attrs: mustprogress nofree norecurse nosync nounwind willreturn memory(write, argmem: readwrite, inaccessiblemem: none) uwtable
define hidden void @python_hashlib_Hacl_Hash_SHA3_reset(ptr noundef captures(none) initializes((24, 32)) %0) local_unnamed_addr #11 {
  %.sroa.0.sroa.4 = alloca [7 x i8], align 1
  %.sroa.0.0.copyload = load i8, ptr %0, align 8, !tbaa !18
  %.sroa.47.0..sroa_idx = getelementptr inbounds nuw i8, ptr %0, i64 1
  call void @llvm.lifetime.start.p0(i64 7, ptr nonnull %.sroa.0.sroa.4)
  call void @llvm.memcpy.p0.p0.i64(ptr noundef nonnull align 1 dereferenceable(7) %.sroa.0.sroa.4, ptr noundef nonnull align 1 dereferenceable(7) %.sroa.47.0..sroa_idx, i64 7, i1 false)
  %.sroa.58.0..sroa_idx = getelementptr inbounds nuw i8, ptr %0, i64 8
  %.sroa.58.0.copyload = load ptr, ptr %.sroa.58.0..sroa_idx, align 8, !tbaa !20
  %.sroa.6.0..sroa_idx = getelementptr inbounds nuw i8, ptr %0, i64 16
  %.sroa.6.0.copyload = load ptr, ptr %.sroa.6.0..sroa_idx, align 8, !tbaa !22
  %.sroa.7.0..sroa_idx = getelementptr inbounds nuw i8, ptr %0, i64 24
  tail call void @llvm.memset.p0.i64(ptr noundef nonnull align 8 dereferenceable(200) %.sroa.58.0.copyload, i8 0, i64 200, i1 false)
  store i8 %.sroa.0.0.copyload, ptr %0, align 8, !tbaa !18
  call void @llvm.memcpy.p0.p0.i64(ptr noundef nonnull align 1 dereferenceable(7) %.sroa.47.0..sroa_idx, ptr noundef nonnull align 1 dereferenceable(7) %.sroa.0.sroa.4, i64 7, i1 false), !tbaa.struct !24
  store ptr %.sroa.58.0.copyload, ptr %.sroa.58.0..sroa_idx, align 8, !tbaa !20
  store ptr %.sroa.6.0.copyload, ptr %.sroa.6.0..sroa_idx, align 8, !tbaa !22
  store i64 0, ptr %.sroa.7.0..sroa_idx, align 8, !tbaa !10
  call void @llvm.lifetime.end.p0(i64 7, ptr nonnull %.sroa.0.sroa.4)
  ret void
}